; Function Attrs: mustprogress nounwind uwtable
define hidden void @_ZN10fileStreamD0Ev(ptr noundef nonnull align 8 dereferenceable(65) %0) unnamed_addr #0 align 2 {
  store ptr getelementptr inbounds inrange(-16, 40) (i8, ptr @_ZTV10fileStream, i64 16), ptr %0, align 8
  %2 = getelementptr inbounds i8, ptr %0, i64 56
  %3 = load ptr, ptr %2, align 8
  %.not.i = icmp eq ptr %3, null
  br i1 %.not.i, label %_ZN10fileStreamD2Ev.exit, label %4

4:                                                ; preds = %1
  %5 = getelementptr inbounds i8, ptr %0, i64 64
  %6 = load i8, ptr %5, align 8
  %7 = trunc i8 %6 to i1
  br i1 %7, label %8, label %_ZN10fileStream5closeEv.exit.i

8:                                                ; preds = %4
  %9 = tail call i32 @fclose(ptr noundef nonnull %3)
  store i8 0, ptr %5, align 8
  br label %_ZN10fileStream5closeEv.exit.i

_ZN10fileStream5closeEv.exit.i:                   ; preds = %8, %4
  store ptr null, ptr %2, align 8
  br label %_ZN10fileStreamD2Ev.exit

_ZN10fileStreamD2Ev.exit:                         ; preds = %1, %_ZN10fileStream5closeEv.exit.i
  tail call void @_Z8FreeHeapPv(ptr noundef nonnull %0) #21
  ret void
}